target datalayout = "e-m:e-p270:32:32-p271:32:32-p272:64:64-i64:64-i128:128-f80:128-n8:16:32:64-S128"
target triple = "x86_64-pc-linux-gnu"

%struct.AVCodecContext = type { ptr, i32, i32, ptr, i32, i32, ptr, ptr, ptr, i64, i32, i32, ptr, i32, %struct.AVRational, %struct.AVRational, %struct.AVRational, i32, i32, i32, i32, i32, %struct.AVRational, i32, i32, i32, i32, i32, i32, i32, i32, i32, i32, i32, ptr, ptr, i32, float, float, float, float, float, float, float, float, float, i32, i32, i32, i32, i32, i32, i32, i32, i32, i32, i32, i32, ptr, ptr, ptr, i32, i32, i32, i32, i32, i32, i32, i32, i32, i32, %struct.AVChannelLayout, i32, i32, i32, i32, i32, i32, i32, i32, ptr, i32, i32, i32, float, float, i32, i32, i32, i32, i32, ptr, i64, i64, float, float, i32, i32, ptr, ptr, i32, i32, i32, i32, i32, ptr, ptr, ptr, ptr, i32, i32, [8 x i64], i32, i32, i32, i32, i32, i32, i32, ptr, ptr, i32, i32, i32, i32, i32, i32, i32, i32, i32, i32, ptr, ptr, i32, i32, ptr, ptr, ptr, ptr, i32, i32, i64, i32, i32, i64, ptr, i64, ptr, i32, ptr, i32 }
%struct.AVRational = type { i32, i32 }
%struct.AVChannelLayout = type { i32, i32, %union.anon, ptr }
%union.anon = type { i64 }
%struct.AVCodecInternal = type { i32, i32, i32, ptr, ptr, ptr, ptr, ptr, ptr, ptr, i32, ptr, ptr, ptr, i32, i32, ptr, i32, ptr, ptr, i32, i32 }
%struct.VAAPIAV1DecContext = type { %struct.VAAPIDecodeContext, [8 x %struct.VAAPIAV1FrameRef], ptr, i32, ptr }
%struct.VAAPIDecodeContext = type { i32, i32, ptr, ptr, ptr, ptr, i32, i32, %struct._VASurfaceAttrib }
%struct._VASurfaceAttrib = type { i32, i32, %struct._VAGenericValue }
%struct._VAGenericValue = type { i32, %union.anon.17 }
%union.anon.17 = type { ptr }
%struct.VAAPIAV1FrameRef = type { ptr, i32 }

; Function Attrs: cold nounwind optsize uwtable
define internal i32 @vaapi_av1_decode_uninit(ptr noundef %0) #1 {
  %2 = alloca ptr, align 8
  %3 = alloca ptr, align 8
  %4 = alloca i32, align 4
  store ptr %0, ptr %2, align 8, !tbaa !4
  call void @llvm.lifetime.start.p0(i64 8, ptr %3) #8
  %5 = load ptr, ptr %2, align 8, !tbaa !4
  %6 = getelementptr inbounds nuw %struct.AVCodecContext, ptr %5, i32 0, i32 7
  %7 = load ptr, ptr %6, align 8, !tbaa !64
  %8 = getelementptr inbounds nuw %struct.AVCodecInternal, ptr %7, i32 0, i32 16
  %9 = load ptr, ptr %8, align 8, !tbaa !65
  store ptr %9, ptr %3, align 8, !tbaa !71
  %10 = load ptr, ptr %3, align 8, !tbaa !71
  %11 = getelementptr inbounds nuw %struct.VAAPIAV1DecContext, ptr %10, i32 0, i32 2
  call void @av_frame_free(ptr noundef %11)
  call void @llvm.lifetime.start.p0(i64 4, ptr %4) #8
  store i32 0, ptr %4, align 4, !tbaa !13
  br label %12

12:                                               ; preds = %24, %1
  %13 = load i32, ptr %4, align 4, !tbaa !13
  %14 = sext i32 %13 to i64
  %15 = icmp ult i64 %14, 8
  br i1 %15, label %17, label %16

16:                                               ; preds = %12
  call void @llvm.lifetime.end.p0(i64 4, ptr %4) #8
  br label %27

17:                                               ; preds = %12
  %18 = load ptr, ptr %3, align 8, !tbaa !71
  %19 = getelementptr inbounds nuw %struct.VAAPIAV1DecContext, ptr %18, i32 0, i32 1
  %20 = load i32, ptr %4, align 4, !tbaa !13
  %21 = sext i32 %20 to i64
  %22 = getelementptr inbounds [8 x %struct.VAAPIAV1FrameRef], ptr %19, i64 0, i64 %21
  %23 = getelementptr inbounds nuw %struct.VAAPIAV1FrameRef, ptr %22, i32 0, i32 0
  call void @av_frame_free(ptr noundef %23)
  br label %24

24:                                               ; preds = %17
  %25 = load i32, ptr %4, align 4, !tbaa !13
  %26 = add nsw i32 %25, 1
  store i32 %26, ptr %4, align 4, !tbaa !13
  br label %12, !llvm.loop !273

27:                                               ; preds = %16
  %28 = load ptr, ptr %3, align 8, !tbaa !71
  %29 = getelementptr inbounds nuw %struct.VAAPIAV1DecContext, ptr %28, i32 0, i32 4
  call void @av_freep(ptr noundef %29)
  %30 = load ptr, ptr %2, align 8, !tbaa !4
  %31 = call i32 @ff_vaapi_decode_uninit(ptr noundef %30)
  call void @llvm.lifetime.end.p0(i64 8, ptr %3) #8
  ret i32 %31
}