; Function Attrs: cold nounwind optsize uwtable
define internal i32 @vaapi_av1_decode_uninit(ptr noundef %0) #1 {
  %2 = getelementptr inbounds nuw i8, ptr %0, i64 40
  %3 = load ptr, ptr %2, align 8, !tbaa !52
  %4 = getelementptr inbounds nuw i8, ptr %3, i64 112
  %5 = load ptr, ptr %4, align 8, !tbaa !53
  %6 = getelementptr inbounds nuw i8, ptr %5, i64 200
  tail call void @av_frame_free(ptr noundef nonnull %6) #6
  %7 = getelementptr inbounds nuw i8, ptr %5, i64 72
  br label %11

8:                                                ; preds = %11
  %9 = getelementptr inbounds nuw i8, ptr %5, i64 216
  tail call void @av_freep(ptr noundef nonnull %9) #6
  %10 = tail call i32 @ff_vaapi_decode_uninit(ptr noundef nonnull %0) #6
  ret i32 %10

11:                                               ; preds = %1, %11
  %indvars.iv = phi i64 [ 0, %1 ], [ %indvars.iv.next, %11 ]
  %12 = getelementptr inbounds nuw [8 x %struct.VAAPIAV1FrameRef], ptr %7, i64 0, i64 %indvars.iv
  tail call void @av_frame_free(ptr noundef nonnull %12) #6
  %indvars.iv.next = add nuw nsw i64 %indvars.iv, 1
  %exitcond.not = icmp eq i64 %indvars.iv.next, 8
  br i1 %exitcond.not, label %8, label %11, !llvm.loop !211
}